; ModuleID = 'source-C-CXX/6/195.c'
source_filename = "source-C-CXX/6/195.c"
target datalayout = "e-m:e-p270:32:32-p271:32:32-p272:64:64-i64:64-f80:128-n8:16:32:64-S128"
target triple = "x86_64-pc-linux-gnu"

@.str = private unnamed_addr constant [3 x i8] c"%s\00", align 1

; Function Attrs: nounwind sspstrong uwtable
define dso_local i32 @main() local_unnamed_addr #0 {
  %1 = alloca [256 x i8], align 16
  %2 = alloca [256 x i8], align 16
  %3 = alloca [256 x i8], align 16
  %4 = getelementptr inbounds [256 x i8], [256 x i8]* %1, i64 0, i64 0
  call void @llvm.lifetime.start.p0i8(i64 256, i8* nonnull %4) #4
  %5 = getelementptr inbounds [256 x i8], [256 x i8]* %2, i64 0, i64 0
  call void @llvm.lifetime.start.p0i8(i64 256, i8* nonnull %5) #4
  %6 = getelementptr inbounds [256 x i8], [256 x i8]* %3, i64 0, i64 0
  call void @llvm.lifetime.start.p0i8(i64 256, i8* nonnull %6) #4
  %7 = call i32 (i8*, ...) bitcast (i32 (...)* @gets to i32 (i8*, ...)*)(i8* nonnull %4) #4
  %8 = call i32 (i8*, ...) bitcast (i32 (...)* @gets to i32 (i8*, ...)*)(i8* nonnull %5) #4
  %9 = call i32 (i8*, ...) bitcast (i32 (...)* @gets to i32 (i8*, ...)*)(i8* nonnull %6) #4
  %10 = load i8, i8* %5, align 16
  %11 = load i8, i8* %4, align 16, !tbaa !5
  %12 = icmp eq i8 %11, 0
  br i1 %12, label %59, label %13

13:                                               ; preds = %0
  %14 = icmp eq i8 %10, 0
  br i1 %14, label %15, label %21

15:                                               ; preds = %13, %15
  %16 = phi i64 [ %17, %15 ], [ 0, %13 ]
  %17 = add nuw i64 %16, 1
  %18 = getelementptr inbounds [256 x i8], [256 x i8]* %1, i64 0, i64 %17
  %19 = load i8, i8* %18, align 1, !tbaa !5
  %20 = icmp eq i8 %19, 0
  br i1 %20, label %59, label %15, !llvm.loop !8

21:                                               ; preds = %13, %54
  %22 = phi i64 [ %55, %54 ], [ 0, %13 ]
  %23 = phi i8 [ %57, %54 ], [ %11, %13 ]
  %24 = icmp eq i8 %23, %10
  br i1 %24, label %30, label %54

25:                                               ; preds = %37
  %26 = load i8, i8* %6, align 16, !tbaa !5
  %27 = icmp eq i8 %26, 0
  br i1 %27, label %59, label %28

28:                                               ; preds = %25
  %29 = and i64 %22, 4294967295
  br label %43

30:                                               ; preds = %21, %37
  %31 = phi i64 [ %38, %37 ], [ %22, %21 ]
  %32 = phi i64 [ %39, %37 ], [ 0, %21 ]
  %33 = phi i8 [ %41, %37 ], [ %10, %21 ]
  %34 = getelementptr inbounds [256 x i8], [256 x i8]* %1, i64 0, i64 %31
  %35 = load i8, i8* %34, align 1, !tbaa !5
  %36 = icmp eq i8 %35, %33
  br i1 %36, label %37, label %54

37:                                               ; preds = %30
  %38 = add nuw i64 %31, 1
  %39 = add nuw i64 %32, 1
  %40 = getelementptr inbounds [256 x i8], [256 x i8]* %2, i64 0, i64 %39
  %41 = load i8, i8* %40, align 1, !tbaa !5
  %42 = icmp eq i8 %41, 0
  br i1 %42, label %25, label %30, !llvm.loop !10

43:                                               ; preds = %28, %43
  %44 = phi i64 [ %29, %28 ], [ %47, %43 ]
  %45 = phi i8 [ %26, %28 ], [ %52, %43 ]
  %46 = getelementptr inbounds [256 x i8], [256 x i8]* %1, i64 0, i64 %44
  store i8 %45, i8* %46, align 1, !tbaa !5
  %47 = add nuw nsw i64 %44, 1
  %48 = sub i64 %47, %22
  %49 = shl i64 %48, 32
  %50 = ashr exact i64 %49, 32
  %51 = getelementptr inbounds [256 x i8], [256 x i8]* %3, i64 0, i64 %50
  %52 = load i8, i8* %51, align 1, !tbaa !5
  %53 = icmp eq i8 %52, 0
  br i1 %53, label %59, label %43, !llvm.loop !11

54:                                               ; preds = %30, %21
  %55 = add nuw i64 %22, 1
  %56 = getelementptr inbounds [256 x i8], [256 x i8]* %1, i64 0, i64 %55
  %57 = load i8, i8* %56, align 1, !tbaa !5
  %58 = icmp eq i8 %57, 0
  br i1 %58, label %59, label %21, !llvm.loop !8

59:                                               ; preds = %54, %43, %15, %0, %25
  %60 = call i32 (i8*, ...) @printf(i8* nonnull dereferenceable(1) getelementptr inbounds ([3 x i8], [3 x i8]* @.str, i64 0, i64 0), i8* nonnull %4)
  call void @llvm.lifetime.end.p0i8(i64 256, i8* nonnull %6) #4
  call void @llvm.lifetime.end.p0i8(i64 256, i8* nonnull %5) #4
  call void @llvm.lifetime.end.p0i8(i64 256, i8* nonnull %4) #4
  ret i32 0
}

; Function Attrs: argmemonly mustprogress nofree nosync nounwind willreturn
declare void @llvm.lifetime.start.p0i8(i64 immarg, i8* nocapture) #1

declare i32 @gets(...) local_unnamed_addr #2

; Function Attrs: nofree nounwind
declare noundef i32 @printf(i8* nocapture noundef readonly, ...) local_unnamed_addr #3

; Function Attrs: argmemonly mustprogress nofree nosync nounwind willreturn
declare void @llvm.lifetime.end.p0i8(i64 immarg, i8* nocapture) #1


!llvm.module.flags = !{!0, !1, !2, !3}
!llvm.ident = !{!4}

!0 = !{i32 1, !"wchar_size", i32 4}
!1 = !{i32 7, !"PIC Level", i32 2}
!2 = !{i32 7, !"PIE Level", i32 2}
!3 = !{i32 7, !"uwtable", i32 1}
!4 = !{!"clang version 13.0.0"}
!5 = !{!6, !6, i64 0}
!6 = !{!"omnipotent char", !7, i64 0}
!7 = !{!"Simple C/C++ TBAA"}
!8 = distinct !{!8, !9}
!9 = !{!"llvm.loop.mustprogress"}
!10 = distinct !{!10, !9}
!11 = distinct !{!11, !9}
